; Function Attrs: mustprogress nounwind uwtable
define void @_ZNK3gmx19SelectionCollection13printXvgrInfoEP8_IO_FILE(ptr nocapture noundef nonnull readonly align 8 dereferenceable(8) %0, ptr nocapture noundef %1) local_unnamed_addr #3 align 2 {
  %3 = load ptr, ptr %0, align 8
  %4 = tail call i64 @fwrite(ptr nonnull @.str.60, i64 14, i64 1, ptr %1)
  %5 = getelementptr inbounds i8, ptr %3, i64 48
  %6 = load i32, ptr %5, align 8
  %7 = icmp sgt i32 %6, 0
  br i1 %7, label %.lr.ph, label %.preheader

.lr.ph:                                           ; preds = %2
  %8 = getelementptr inbounds i8, ptr %3, i64 56
  br label %13

.preheader:                                       ; preds = %13, %2
  %9 = getelementptr inbounds i8, ptr %3, i64 24
  %10 = getelementptr inbounds i8, ptr %3, i64 32
  %11 = load ptr, ptr %10, align 8
  %12 = load ptr, ptr %9, align 8
  %.not = icmp eq ptr %11, %12
  br i1 %.not, label %._crit_edge, label %.lr.ph17

13:                                               ; preds = %.lr.ph, %13
  %indvars.iv = phi i64 [ 0, %.lr.ph ], [ %indvars.iv.next, %13 ]
  %14 = load ptr, ptr %8, align 8
  %15 = getelementptr inbounds ptr, ptr %14, i64 %indvars.iv
  %16 = load ptr, ptr %15, align 8
  %17 = tail call i32 (ptr, ptr, ...) @fprintf(ptr noundef %1, ptr noundef nonnull @.str.61, ptr noundef %16) #22
  %indvars.iv.next = add nuw nsw i64 %indvars.iv, 1
  %18 = load i32, ptr %5, align 8
  %19 = sext i32 %18 to i64
  %20 = icmp slt i64 %indvars.iv.next, %19
  br i1 %20, label %13, label %.preheader, !llvm.loop !55

.lr.ph17:                                         ; preds = %.preheader, %.lr.ph17
  %21 = phi ptr [ %29, %.lr.ph17 ], [ %12, %.preheader ]
  %.016 = phi i64 [ %27, %.lr.ph17 ], [ 0, %.preheader ]
  %22 = getelementptr inbounds %"class.std::unique_ptr.31", ptr %21, i64 %.016
  %23 = load ptr, ptr %22, align 8
  %24 = getelementptr inbounds i8, ptr %23, i64 32
  %25 = tail call noundef ptr @_ZNKSt7__cxx1112basic_stringIcSt11char_traitsIcESaIcEE5c_strEv(ptr noundef nonnull align 8 dereferenceable(32) %24) #22
  %26 = tail call i32 (ptr, ptr, ...) @fprintf(ptr noundef %1, ptr noundef nonnull @.str.61, ptr noundef %25) #22
  %27 = add nuw i64 %.016, 1
  %28 = load ptr, ptr %10, align 8
  %29 = load ptr, ptr %9, align 8
  %30 = ptrtoint ptr %28 to i64
  %31 = ptrtoint ptr %29 to i64
  %32 = sub i64 %30, %31
  %33 = ashr exact i64 %32, 3
  %34 = icmp ult i64 %27, %33
  br i1 %34, label %.lr.ph17, label %._crit_edge, !llvm.loop !56

._crit_edge:                                      ; preds = %.lr.ph17, %.preheader
  %35 = tail call i64 @fwrite(ptr nonnull @.str.62, i64 2, i64 1, ptr %1)
  ret void
}